target datalayout = "e-m:e-p270:32:32-p271:32:32-p272:64:64-i64:64-i128:128-f80:128-n8:16:32:64-S128"
target triple = "x86_64-pc-linux-gnu"

%struct.fdt_header = type { i32, i32, i32, i32, i32, i32, i32, i32, i32, i32 }
%struct.fdt_node_header = type { i32, [0 x i8] }

; Function Attrs: inlinehint nounwind uwtable
define internal ptr @fdt_offset_ptr_(ptr noundef %0, i32 noundef %1) #2 {
  %3 = alloca ptr, align 8
  %4 = alloca i32, align 4
  store ptr %0, ptr %3, align 8, !tbaa !3
  store i32 %1, ptr %4, align 4, !tbaa !9
  %5 = load ptr, ptr %3, align 8, !tbaa !3
  %6 = load ptr, ptr %3, align 8, !tbaa !3
  %7 = getelementptr inbounds nuw %struct.fdt_header, ptr %6, i32 0, i32 2
  %8 = call i32 @fdt32_ld(ptr noundef %7)
  %9 = zext i32 %8 to i64
  %10 = getelementptr inbounds nuw i8, ptr %5, i64 %9
  %11 = load i32, ptr %4, align 4, !tbaa !9
  %12 = sext i32 %11 to i64
  %13 = getelementptr inbounds i8, ptr %10, i64 %12
  ret ptr %13
}

; Function Attrs: inlinehint nounwind uwtable
define internal void @fdt_set_version(ptr noundef %0, i32 noundef %1) #2 {
  %3 = alloca ptr, align 8
  %4 = alloca i32, align 4
  %5 = alloca ptr, align 8
  store ptr %0, ptr %3, align 8, !tbaa !3
  store i32 %1, ptr %4, align 4, !tbaa !9
  call void @llvm.lifetime.start.p0(i64 8, ptr %5) #7
  %6 = load ptr, ptr %3, align 8, !tbaa !3
  store ptr %6, ptr %5, align 8, !tbaa !36
  %7 = load i32, ptr %4, align 4, !tbaa !9
  %8 = call i32 @cpu_to_fdt32(i32 noundef %7)
  %9 = load ptr, ptr %5, align 8, !tbaa !36
  %10 = getelementptr inbounds nuw %struct.fdt_header, ptr %9, i32 0, i32 5
  store i32 %8, ptr %10, align 4, !tbaa !38
  call void @llvm.lifetime.end.p0(i64 8, ptr %5) #7
  ret void
}

; Function Attrs: inlinehint nounwind uwtable
define internal i32 @fdt32_ld(ptr noundef %0) #2 {
  %2 = alloca ptr, align 8
  %3 = alloca ptr, align 8
  store ptr %0, ptr %2, align 8, !tbaa !27
  call void @llvm.lifetime.start.p0(i64 8, ptr %3) #7
  %4 = load ptr, ptr %2, align 8, !tbaa !27
  store ptr %4, ptr %3, align 8, !tbaa !17
  %5 = load ptr, ptr %3, align 8, !tbaa !17
  %6 = getelementptr inbounds i8, ptr %5, i64 0
  %7 = load i8, ptr %6, align 1, !tbaa !16
  %8 = zext i8 %7 to i32
  %9 = shl i32 %8, 24
  %10 = load ptr, ptr %3, align 8, !tbaa !17
  %11 = getelementptr inbounds i8, ptr %10, i64 1
  %12 = load i8, ptr %11, align 1, !tbaa !16
  %13 = zext i8 %12 to i32
  %14 = shl i32 %13, 16
  %15 = or i32 %9, %14
  %16 = load ptr, ptr %3, align 8, !tbaa !17
  %17 = getelementptr inbounds i8, ptr %16, i64 2
  %18 = load i8, ptr %17, align 1, !tbaa !16
  %19 = zext i8 %18 to i32
  %20 = shl i32 %19, 8
  %21 = or i32 %15, %20
  %22 = load ptr, ptr %3, align 8, !tbaa !17
  %23 = getelementptr inbounds i8, ptr %22, i64 3
  %24 = load i8, ptr %23, align 1, !tbaa !16
  %25 = zext i8 %24 to i32
  %26 = or i32 %21, %25
  call void @llvm.lifetime.end.p0(i64 8, ptr %3) #7
  ret i32 %26
}

; Function Attrs: inlinehint nounwind uwtable
define internal i32 @cpu_to_fdt32(i32 noundef %0) #2 {
  %2 = alloca i32, align 4
  store i32 %0, ptr %2, align 4, !tbaa !9
  %3 = getelementptr inbounds i8, ptr %2, i64 0
  %4 = load i8, ptr %3, align 4, !tbaa !16
  %5 = zext i8 %4 to i64
  %6 = shl i64 %5, 24
  %7 = getelementptr inbounds i8, ptr %2, i64 1
  %8 = load i8, ptr %7, align 1, !tbaa !16
  %9 = zext i8 %8 to i64
  %10 = shl i64 %9, 16
  %11 = or i64 %6, %10
  %12 = getelementptr inbounds i8, ptr %2, i64 2
  %13 = load i8, ptr %12, align 2, !tbaa !16
  %14 = zext i8 %13 to i64
  %15 = shl i64 %14, 8
  %16 = or i64 %11, %15
  %17 = getelementptr inbounds i8, ptr %2, i64 3
  %18 = load i8, ptr %17, align 1, !tbaa !16
  %19 = zext i8 %18 to i64
  %20 = or i64 %16, %19
  %21 = trunc i64 %20 to i32
  ret i32 %21
}

; Function Attrs: inlinehint nounwind uwtable
define internal ptr @fdt_offset_ptr_w_(ptr noundef %0, i32 noundef %1) #2 {
  %3 = alloca ptr, align 8
  %4 = alloca i32, align 4
  store ptr %0, ptr %3, align 8, !tbaa !3
  store i32 %1, ptr %4, align 4, !tbaa !9
  %5 = load ptr, ptr %3, align 8, !tbaa !3
  %6 = load i32, ptr %4, align 4, !tbaa !9
  %7 = call ptr @fdt_offset_ptr_(ptr noundef %5, i32 noundef %6)
  %8 = ptrtoint ptr %7 to i64
  %9 = inttoptr i64 %8 to ptr
  ret ptr %9
}

; Function Attrs: nounwind uwtable
define internal i32 @fdt_rw_probe_(ptr noundef %0) #0 {
  %2 = alloca i32, align 4
  %3 = alloca ptr, align 8
  %4 = alloca i32, align 4
  %5 = alloca i32, align 4
  store ptr %0, ptr %3, align 8, !tbaa !3
  call void @llvm.lifetime.start.p0(i64 4, ptr %4) #7
  %6 = load ptr, ptr %3, align 8, !tbaa !3
  %7 = call i32 @fdt_ro_probe_(ptr noundef %6)
  store i32 %7, ptr %4, align 4, !tbaa !9
  %8 = icmp slt i32 %7, 0
  br i1 %8, label %9, label %11

9:                                                ; preds = %1
  %10 = load i32, ptr %4, align 4, !tbaa !9
  store i32 %10, ptr %2, align 4
  store i32 1, ptr %5, align 4
  br label %12

11:                                               ; preds = %1
  store i32 0, ptr %5, align 4
  br label %12

12:                                               ; preds = %11, %9
  call void @llvm.lifetime.end.p0(i64 4, ptr %4) #7
  %13 = load i32, ptr %5, align 4
  switch i32 %13, label %38 [
    i32 0, label %14
    i32 1, label %36
  ]

14:                                               ; preds = %12
  %15 = load ptr, ptr %3, align 8, !tbaa !3
  %16 = getelementptr inbounds nuw %struct.fdt_header, ptr %15, i32 0, i32 5
  %17 = call i32 @fdt32_ld(ptr noundef %16)
  %18 = icmp ult i32 %17, 17
  br i1 %18, label %19, label %20

19:                                               ; preds = %14
  store i32 -10, ptr %2, align 4
  br label %36

20:                                               ; preds = %14
  %21 = load ptr, ptr %3, align 8, !tbaa !3
  %22 = load ptr, ptr %3, align 8, !tbaa !3
  %23 = getelementptr inbounds nuw %struct.fdt_header, ptr %22, i32 0, i32 9
  %24 = call i32 @fdt32_ld(ptr noundef %23)
  %25 = call i32 @fdt_blocks_misordered_(ptr noundef %21, i32 noundef 16, i32 noundef %24)
  %26 = icmp ne i32 %25, 0
  br i1 %26, label %27, label %28

27:                                               ; preds = %20
  store i32 -12, ptr %2, align 4
  br label %36

28:                                               ; preds = %20
  %29 = load ptr, ptr %3, align 8, !tbaa !3
  %30 = getelementptr inbounds nuw %struct.fdt_header, ptr %29, i32 0, i32 5
  %31 = call i32 @fdt32_ld(ptr noundef %30)
  %32 = icmp ugt i32 %31, 17
  br i1 %32, label %33, label %35

33:                                               ; preds = %28
  %34 = load ptr, ptr %3, align 8, !tbaa !3
  call void @fdt_set_version(ptr noundef %34, i32 noundef 17)
  br label %35

35:                                               ; preds = %33, %28
  store i32 0, ptr %2, align 4
  br label %36

36:                                               ; preds = %35, %27, %19, %12
  %37 = load i32, ptr %2, align 4
  ret i32 %37

38:                                               ; preds = %12
  unreachable
}

; Function Attrs: nounwind uwtable
define i32 @fdt_add_subnode_namelen(ptr noundef %0, i32 noundef %1, ptr noundef %2, i32 noundef %3) #0 {
  %5 = alloca i32, align 4
  %6 = alloca ptr, align 8
  %7 = alloca i32, align 4
  %8 = alloca ptr, align 8
  %9 = alloca i32, align 4
  %10 = alloca ptr, align 8
  %11 = alloca i32, align 4
  %12 = alloca i32, align 4
  %13 = alloca i32, align 4
  %14 = alloca i32, align 4
  %15 = alloca i32, align 4
  %16 = alloca ptr, align 8
  %17 = alloca i32, align 4
  %18 = alloca i32, align 4
  store ptr %0, ptr %6, align 8, !tbaa !3
  store i32 %1, ptr %7, align 4, !tbaa !9
  store ptr %2, ptr %8, align 8, !tbaa !17
  store i32 %3, ptr %9, align 4, !tbaa !9
  call void @llvm.lifetime.start.p0(i64 8, ptr %10) #7
  call void @llvm.lifetime.start.p0(i64 4, ptr %11) #7
  call void @llvm.lifetime.start.p0(i64 4, ptr %12) #7
  call void @llvm.lifetime.start.p0(i64 4, ptr %13) #7
  call void @llvm.lifetime.start.p0(i64 4, ptr %14) #7
  call void @llvm.lifetime.start.p0(i64 4, ptr %15) #7
  call void @llvm.lifetime.start.p0(i64 8, ptr %16) #7
  call void @llvm.lifetime.start.p0(i64 4, ptr %17) #7
  %19 = load ptr, ptr %6, align 8, !tbaa !3
  %20 = call i32 @fdt_rw_probe_(ptr noundef %19)
  store i32 %20, ptr %17, align 4, !tbaa !9
  %21 = icmp ne i32 %20, 0
  br i1 %21, label %22, label %24

22:                                               ; preds = %4
  %23 = load i32, ptr %17, align 4, !tbaa !9
  store i32 %23, ptr %5, align 4
  store i32 1, ptr %18, align 4
  br label %25

24:                                               ; preds = %4
  store i32 0, ptr %18, align 4
  br label %25

25:                                               ; preds = %24, %22
  call void @llvm.lifetime.end.p0(i64 4, ptr %17) #7
  %26 = load i32, ptr %18, align 4
  switch i32 %26, label %107 [
    i32 0, label %27
  ]

27:                                               ; preds = %25
  %28 = load ptr, ptr %6, align 8, !tbaa !3
  %29 = load i32, ptr %7, align 4, !tbaa !9
  %30 = load ptr, ptr %8, align 8, !tbaa !17
  %31 = load i32, ptr %9, align 4, !tbaa !9
  %32 = call i32 @fdt_subnode_offset_namelen(ptr noundef %28, i32 noundef %29, ptr noundef %30, i32 noundef %31)
  store i32 %32, ptr %11, align 4, !tbaa !9
  %33 = load i32, ptr %11, align 4, !tbaa !9
  %34 = icmp sge i32 %33, 0
  br i1 %34, label %35, label %36

35:                                               ; preds = %27
  store i32 -2, ptr %5, align 4
  store i32 1, ptr %18, align 4
  br label %107

36:                                               ; preds = %27
  %37 = load i32, ptr %11, align 4, !tbaa !9
  %38 = icmp ne i32 %37, -1
  br i1 %38, label %39, label %41

39:                                               ; preds = %36
  %40 = load i32, ptr %11, align 4, !tbaa !9
  store i32 %40, ptr %5, align 4
  store i32 1, ptr %18, align 4
  br label %107

41:                                               ; preds = %36
  br label %42

42:                                               ; preds = %41
  %43 = load ptr, ptr %6, align 8, !tbaa !3
  %44 = load i32, ptr %7, align 4, !tbaa !9
  %45 = call i32 @fdt_next_tag(ptr noundef %43, i32 noundef %44, ptr noundef %12)
  br label %46

46:                                               ; preds = %57, %42
  %47 = load i32, ptr %12, align 4, !tbaa !9
  store i32 %47, ptr %11, align 4, !tbaa !9
  %48 = load ptr, ptr %6, align 8, !tbaa !3
  %49 = load i32, ptr %11, align 4, !tbaa !9
  %50 = call i32 @fdt_next_tag(ptr noundef %48, i32 noundef %49, ptr noundef %12)
  store i32 %50, ptr %15, align 4, !tbaa !9
  br label %51

51:                                               ; preds = %46
  %52 = load i32, ptr %15, align 4, !tbaa !9
  %53 = icmp eq i32 %52, 3
  br i1 %53, label %57, label %54

54:                                               ; preds = %51
  %55 = load i32, ptr %15, align 4, !tbaa !9
  %56 = icmp eq i32 %55, 4
  br label %57

57:                                               ; preds = %54, %51
  %58 = phi i1 [ true, %51 ], [ %56, %54 ]
  br i1 %58, label %46, label %59, !llvm.loop !29

59:                                               ; preds = %57
  %60 = load ptr, ptr %6, align 8, !tbaa !3
  %61 = load i32, ptr %11, align 4, !tbaa !9
  %62 = call ptr @fdt_offset_ptr_w_(ptr noundef %60, i32 noundef %61)
  store ptr %62, ptr %10, align 8, !tbaa !31
  %63 = load i32, ptr %9, align 4, !tbaa !9
  %64 = add nsw i32 %63, 1
  %65 = sext i32 %64 to i64
  %66 = add i64 %65, 4
  %67 = sub i64 %66, 1
  %68 = and i64 %67, -4
  %69 = add i64 4, %68
  %70 = add i64 %69, 4
  %71 = trunc i64 %70 to i32
  store i32 %71, ptr %13, align 4, !tbaa !9
  %72 = load ptr, ptr %6, align 8, !tbaa !3
  %73 = load ptr, ptr %10, align 8, !tbaa !31
  %74 = load i32, ptr %13, align 4, !tbaa !9
  %75 = call i32 @fdt_splice_struct_(ptr noundef %72, ptr noundef %73, i32 noundef 0, i32 noundef %74)
  store i32 %75, ptr %14, align 4, !tbaa !9
  %76 = load i32, ptr %14, align 4, !tbaa !9
  %77 = icmp ne i32 %76, 0
  br i1 %77, label %78, label %80

78:                                               ; preds = %59
  %79 = load i32, ptr %14, align 4, !tbaa !9
  store i32 %79, ptr %5, align 4
  store i32 1, ptr %18, align 4
  br label %107

80:                                               ; preds = %59
  %81 = call i32 @cpu_to_fdt32(i32 noundef 1)
  %82 = load ptr, ptr %10, align 8, !tbaa !31
  %83 = getelementptr inbounds nuw %struct.fdt_node_header, ptr %82, i32 0, i32 0
  store i32 %81, ptr %83, align 4, !tbaa !33
  %84 = load ptr, ptr %10, align 8, !tbaa !31
  %85 = getelementptr inbounds nuw %struct.fdt_node_header, ptr %84, i32 0, i32 1
  %86 = getelementptr inbounds [0 x i8], ptr %85, i64 0, i64 0
  %87 = load i32, ptr %9, align 4, !tbaa !9
  %88 = add nsw i32 %87, 1
  %89 = sext i32 %88 to i64
  %90 = add i64 %89, 4
  %91 = sub i64 %90, 1
  %92 = and i64 %91, -4
  call void @llvm.memset.p0.i64(ptr align 4 %86, i8 0, i64 %92, i1 false)
  %93 = load ptr, ptr %10, align 8, !tbaa !31
  %94 = getelementptr inbounds nuw %struct.fdt_node_header, ptr %93, i32 0, i32 1
  %95 = getelementptr inbounds [0 x i8], ptr %94, i64 0, i64 0
  %96 = load ptr, ptr %8, align 8, !tbaa !17
  %97 = load i32, ptr %9, align 4, !tbaa !9
  %98 = sext i32 %97 to i64
  call void @llvm.memcpy.p0.p0.i64(ptr align 4 %95, ptr align 1 %96, i64 %98, i1 false)
  %99 = load ptr, ptr %10, align 8, !tbaa !31
  %100 = load i32, ptr %13, align 4, !tbaa !9
  %101 = sext i32 %100 to i64
  %102 = getelementptr inbounds i8, ptr %99, i64 %101
  %103 = getelementptr inbounds i8, ptr %102, i64 -4
  store ptr %103, ptr %16, align 8, !tbaa !27
  %104 = call i32 @cpu_to_fdt32(i32 noundef 2)
  %105 = load ptr, ptr %16, align 8, !tbaa !27
  store i32 %104, ptr %105, align 4, !tbaa !9
  %106 = load i32, ptr %11, align 4, !tbaa !9
  store i32 %106, ptr %5, align 4
  store i32 1, ptr %18, align 4
  br label %107

107:                                              ; preds = %80, %78, %39, %35, %25
  call void @llvm.lifetime.end.p0(i64 8, ptr %16) #7
  call void @llvm.lifetime.end.p0(i64 4, ptr %15) #7
  call void @llvm.lifetime.end.p0(i64 4, ptr %14) #7
  call void @llvm.lifetime.end.p0(i64 4, ptr %13) #7
  call void @llvm.lifetime.end.p0(i64 4, ptr %12) #7
  call void @llvm.lifetime.end.p0(i64 4, ptr %11) #7
  call void @llvm.lifetime.end.p0(i64 8, ptr %10) #7
  %108 = load i32, ptr %5, align 4
  ret i32 %108
}