; Function Attrs: nounwind uwtable
define i32 @fdt_add_subnode_namelen(ptr noundef %0, i32 noundef %1, ptr noundef %2, i32 noundef %3) local_unnamed_addr #0 {
  %5 = alloca i32, align 4
  call void @llvm.lifetime.start.p0(i64 4, ptr nonnull %5) #9
  %6 = tail call i32 @fdt_ro_probe_(ptr noundef %0) #9
  %7 = icmp sgt i32 %6, -1
  br i1 %7, label %8, label %fdt_rw_probe_.exit.thread

8:                                                ; preds = %4
  %9 = getelementptr inbounds nuw i8, ptr %0, i64 20
  %10 = load i8, ptr %9, align 1, !tbaa !3
  %11 = zext i8 %10 to i32
  %12 = shl nuw i32 %11, 24
  %13 = getelementptr inbounds nuw i8, ptr %0, i64 21
  %14 = load i8, ptr %13, align 1, !tbaa !3
  %15 = zext i8 %14 to i32
  %16 = shl nuw nsw i32 %15, 16
  %17 = or disjoint i32 %16, %12
  %18 = getelementptr inbounds nuw i8, ptr %0, i64 22
  %19 = load i8, ptr %18, align 1, !tbaa !3
  %20 = zext i8 %19 to i32
  %21 = shl nuw nsw i32 %20, 8
  %22 = or disjoint i32 %17, %21
  %23 = getelementptr inbounds nuw i8, ptr %0, i64 23
  %24 = load i8, ptr %23, align 1, !tbaa !3
  %25 = zext i8 %24 to i32
  %26 = or disjoint i32 %22, %25
  %27 = icmp ult i32 %26, 17
  br i1 %27, label %fdt_rw_probe_.exit.thread, label %28

28:                                               ; preds = %8
  %29 = getelementptr inbounds nuw i8, ptr %0, i64 36
  %30 = load i8, ptr %29, align 1, !tbaa !3
  %31 = zext i8 %30 to i32
  %32 = shl nuw i32 %31, 24
  %33 = getelementptr inbounds nuw i8, ptr %0, i64 37
  %34 = load i8, ptr %33, align 1, !tbaa !3
  %35 = zext i8 %34 to i32
  %36 = shl nuw nsw i32 %35, 16
  %37 = or disjoint i32 %36, %32
  %38 = getelementptr inbounds nuw i8, ptr %0, i64 38
  %39 = load i8, ptr %38, align 1, !tbaa !3
  %40 = zext i8 %39 to i32
  %41 = shl nuw nsw i32 %40, 8
  %42 = or disjoint i32 %37, %41
  %43 = getelementptr inbounds nuw i8, ptr %0, i64 39
  %44 = load i8, ptr %43, align 1, !tbaa !3
  %45 = zext i8 %44 to i32
  %46 = or disjoint i32 %42, %45
  %47 = tail call fastcc i32 @fdt_blocks_misordered_(ptr noundef nonnull %0, i32 noundef 16, i32 noundef %46)
  %.not.i = icmp eq i32 %47, 0
  br i1 %.not.i, label %48, label %fdt_rw_probe_.exit.thread

48:                                               ; preds = %28
  %.not9.i = icmp eq i32 %26, 17
  br i1 %.not9.i, label %fdt_rw_probe_.exit, label %49

49:                                               ; preds = %48
  store i32 285212672, ptr %9, align 4, !tbaa !6
  br label %fdt_rw_probe_.exit

fdt_rw_probe_.exit:                               ; preds = %49, %48
  %50 = tail call i32 @fdt_subnode_offset_namelen(ptr noundef nonnull %0, i32 noundef %1, ptr noundef %2, i32 noundef %3) #9
  %51 = icmp sgt i32 %50, -1
  br i1 %51, label %fdt_rw_probe_.exit.thread, label %52

52:                                               ; preds = %fdt_rw_probe_.exit
  %.not37 = icmp eq i32 %50, -1
  br i1 %.not37, label %53, label %fdt_rw_probe_.exit.thread

53:                                               ; preds = %52
  %54 = call i32 @fdt_next_tag(ptr noundef nonnull %0, i32 noundef %1, ptr noundef nonnull %5) #9
  br label %55

55:                                               ; preds = %55, %53
  %56 = load i32, ptr %5, align 4, !tbaa !15
  %57 = call i32 @fdt_next_tag(ptr noundef nonnull %0, i32 noundef %56, ptr noundef nonnull %5) #9
  %58 = add i32 %57, -3
  %59 = icmp ult i32 %58, 2
  br i1 %59, label %55, label %60, !llvm.loop !26

60:                                               ; preds = %55
  %61 = getelementptr inbounds nuw i8, ptr %0, i64 8
  %62 = load i8, ptr %61, align 1, !tbaa !3
  %63 = zext i8 %62 to i64
  %64 = shl nuw nsw i64 %63, 24
  %65 = getelementptr inbounds nuw i8, ptr %0, i64 9
  %66 = load i8, ptr %65, align 1, !tbaa !3
  %67 = zext i8 %66 to i64
  %68 = shl nuw nsw i64 %67, 16
  %69 = or disjoint i64 %68, %64
  %70 = getelementptr inbounds nuw i8, ptr %0, i64 10
  %71 = load i8, ptr %70, align 1, !tbaa !3
  %72 = zext i8 %71 to i64
  %73 = shl nuw nsw i64 %72, 8
  %74 = or disjoint i64 %69, %73
  %75 = getelementptr inbounds nuw i8, ptr %0, i64 11
  %76 = load i8, ptr %75, align 1, !tbaa !3
  %77 = zext i8 %76 to i64
  %78 = or disjoint i64 %74, %77
  %79 = getelementptr inbounds nuw i8, ptr %0, i64 %78
  %80 = sext i32 %56 to i64
  %81 = getelementptr inbounds i8, ptr %79, i64 %80
  %82 = and i32 %3, -4
  %83 = add i32 %82, 12
  %84 = call fastcc i32 @fdt_splice_struct_(ptr noundef nonnull %0, ptr noundef nonnull %81, i32 noundef 0, i32 noundef %83)
  %.not38 = icmp eq i32 %84, 0
  br i1 %.not38, label %85, label %fdt_rw_probe_.exit.thread

85:                                               ; preds = %60
  %86 = sext i32 %82 to i64
  %87 = add nsw i64 %86, 4
  store i32 16777216, ptr %81, align 4, !tbaa !28
  %88 = getelementptr inbounds nuw i8, ptr %81, i64 4
  call void @llvm.memset.p0.i64(ptr nonnull align 4 %88, i8 0, i64 %87, i1 false)
  %89 = sext i32 %3 to i64
  call void @llvm.memcpy.p0.p0.i64(ptr nonnull align 4 %88, ptr align 1 %2, i64 %89, i1 false)
  %90 = sext i32 %83 to i64
  %91 = getelementptr inbounds i8, ptr %81, i64 %90
  %92 = getelementptr inbounds i8, ptr %91, i64 -4
  store i32 33554432, ptr %92, align 4, !tbaa !15
  br label %fdt_rw_probe_.exit.thread

fdt_rw_probe_.exit.thread:                        ; preds = %28, %8, %4, %60, %52, %fdt_rw_probe_.exit, %85
  %.1 = phi i32 [ %56, %85 ], [ -2, %fdt_rw_probe_.exit ], [ %50, %52 ], [ %84, %60 ], [ -12, %28 ], [ -10, %8 ], [ %6, %4 ]
  call void @llvm.lifetime.end.p0(i64 4, ptr nonnull %5) #9
  ret i32 %.1
}